target datalayout = "e-m:e-p270:32:32-p271:32:32-p272:64:64-i64:64-i128:128-f80:128-n8:16:32:64-S128"
target triple = "x86_64-pc-linux-gnu"

%struct.OnigEncodingTypeST = type { ptr, ptr, i32, i32, ptr, ptr, ptr, ptr, ptr, ptr, ptr, ptr, ptr, ptr, ptr, ptr, ptr, ptr, ptr, i32, i32, i32 }
%struct.ByUnfoldKey = type { i32, i16, i16 }

; Function Attrs: nounwind uwtable
define dso_local i32 @onigenc_unicode_mbc_case_fold(ptr noundef %0, i32 noundef %1, ptr noundef %2, ptr noundef %3, ptr noundef %4) #0 {
  %6 = alloca i32, align 4
  %7 = alloca ptr, align 8
  %8 = alloca i32, align 4
  %9 = alloca ptr, align 8
  %10 = alloca ptr, align 8
  %11 = alloca ptr, align 8
  %12 = alloca ptr, align 8
  %13 = alloca i32, align 4
  %14 = alloca i32, align 4
  %15 = alloca i32, align 4
  %16 = alloca i32, align 4
  %17 = alloca ptr, align 8
  %18 = alloca i32, align 4
  %19 = alloca ptr, align 8
  %20 = alloca i32, align 4
  store ptr %0, ptr %7, align 8, !tbaa !4
  store i32 %1, ptr %8, align 4, !tbaa !9
  store ptr %2, ptr %9, align 8, !tbaa !11
  store ptr %3, ptr %10, align 8, !tbaa !13
  store ptr %4, ptr %11, align 8, !tbaa !13
  call void @llvm.lifetime.start.p0(i64 8, ptr %12) #7
  call void @llvm.lifetime.start.p0(i64 4, ptr %13) #7
  call void @llvm.lifetime.start.p0(i64 4, ptr %14) #7
  call void @llvm.lifetime.start.p0(i64 4, ptr %15) #7
  call void @llvm.lifetime.start.p0(i64 4, ptr %16) #7
  call void @llvm.lifetime.start.p0(i64 8, ptr %17) #7
  %21 = load ptr, ptr %9, align 8, !tbaa !11
  %22 = load ptr, ptr %21, align 8, !tbaa !13
  store ptr %22, ptr %17, align 8, !tbaa !13
  %23 = load ptr, ptr %7, align 8, !tbaa !4
  %24 = getelementptr inbounds nuw %struct.OnigEncodingTypeST, ptr %23, i32 0, i32 5
  %25 = load ptr, ptr %24, align 8, !tbaa !15
  %26 = load ptr, ptr %17, align 8, !tbaa !13
  %27 = load ptr, ptr %10, align 8, !tbaa !13
  %28 = call i32 %25(ptr noundef %26, ptr noundef %27)
  store i32 %28, ptr %13, align 4, !tbaa !9
  %29 = load ptr, ptr %7, align 8, !tbaa !4
  %30 = getelementptr inbounds nuw %struct.OnigEncodingTypeST, ptr %29, i32 0, i32 0
  %31 = load ptr, ptr %30, align 8, !tbaa !17
  %32 = load ptr, ptr %17, align 8, !tbaa !13
  %33 = call i32 %31(ptr noundef %32)
  store i32 %33, ptr %15, align 4, !tbaa !9
  %34 = load i32, ptr %15, align 4, !tbaa !9
  %35 = load ptr, ptr %9, align 8, !tbaa !11
  %36 = load ptr, ptr %35, align 8, !tbaa !13
  %37 = sext i32 %34 to i64
  %38 = getelementptr inbounds i8, ptr %36, i64 %37
  store ptr %38, ptr %35, align 8, !tbaa !13
  %39 = load i32, ptr %8, align 4, !tbaa !9
  %40 = and i32 %39, 1
  %41 = icmp eq i32 %40, 0
  br i1 %41, label %45, label %42

42:                                               ; preds = %5
  %43 = load i32, ptr %13, align 4, !tbaa !9
  %44 = icmp ult i32 %43, 128
  br i1 %44, label %45, label %163

45:                                               ; preds = %42, %5
  %46 = load i32, ptr %13, align 4, !tbaa !9
  %47 = call ptr @onigenc_unicode_unfold_key(i32 noundef %46)
  store ptr %47, ptr %12, align 8, !tbaa !18
  %48 = load ptr, ptr %12, align 8, !tbaa !18
  %49 = icmp ne ptr %48, null
  br i1 %49, label %50, label %162

50:                                               ; preds = %45
  %51 = load ptr, ptr %12, align 8, !tbaa !18
  %52 = getelementptr inbounds nuw %struct.ByUnfoldKey, ptr %51, i32 0, i32 2
  %53 = load i16, ptr %52, align 2, !tbaa !20
  %54 = sext i16 %53 to i32
  %55 = icmp eq i32 %54, 1
  br i1 %55, label %56, label %83

56:                                               ; preds = %50
  %57 = load i32, ptr %8, align 4, !tbaa !9
  %58 = and i32 %57, 1
  %59 = icmp eq i32 %58, 0
  br i1 %59, label %69, label %60

60:                                               ; preds = %56
  %61 = load ptr, ptr %12, align 8, !tbaa !18
  %62 = getelementptr inbounds nuw %struct.ByUnfoldKey, ptr %61, i32 0, i32 1
  %63 = load i16, ptr %62, align 4, !tbaa !23
  %64 = sext i16 %63 to i32
  %65 = sext i32 %64 to i64
  %66 = getelementptr inbounds i32, ptr @OnigUnicodeFolds1, i64 %65
  %67 = load i32, ptr %66, align 4, !tbaa !9
  %68 = icmp ult i32 %67, 128
  br i1 %68, label %69, label %82

69:                                               ; preds = %60, %56
  %70 = load ptr, ptr %7, align 8, !tbaa !4
  %71 = getelementptr inbounds nuw %struct.OnigEncodingTypeST, ptr %70, i32 0, i32 7
  %72 = load ptr, ptr %71, align 8, !tbaa !24
  %73 = load ptr, ptr %12, align 8, !tbaa !18
  %74 = getelementptr inbounds nuw %struct.ByUnfoldKey, ptr %73, i32 0, i32 1
  %75 = load i16, ptr %74, align 4, !tbaa !23
  %76 = sext i16 %75 to i32
  %77 = sext i32 %76 to i64
  %78 = getelementptr inbounds i32, ptr @OnigUnicodeFolds1, i64 %77
  %79 = load i32, ptr %78, align 4, !tbaa !9
  %80 = load ptr, ptr %11, align 8, !tbaa !13
  %81 = call i32 %72(i32 noundef %79, ptr noundef %80)
  store i32 %81, ptr %6, align 4
  store i32 1, ptr %18, align 4
  br label %179

82:                                               ; preds = %60
  br label %161

83:                                               ; preds = %50
  call void @llvm.lifetime.start.p0(i64 8, ptr %19) #7
  br label %84

84:                                               ; preds = %83
  %85 = load ptr, ptr %12, align 8, !tbaa !18
  %86 = getelementptr inbounds nuw %struct.ByUnfoldKey, ptr %85, i32 0, i32 2
  %87 = load i16, ptr %86, align 2, !tbaa !20
  %88 = sext i16 %87 to i32
  %89 = icmp eq i32 %88, 1
  br i1 %89, label %90, label %97

90:                                               ; preds = %84
  %91 = load ptr, ptr %12, align 8, !tbaa !18
  %92 = getelementptr inbounds nuw %struct.ByUnfoldKey, ptr %91, i32 0, i32 1
  %93 = load i16, ptr %92, align 4, !tbaa !23
  %94 = sext i16 %93 to i32
  %95 = sext i32 %94 to i64
  %96 = getelementptr inbounds i32, ptr @OnigUnicodeFolds1, i64 %95
  store ptr %96, ptr %19, align 8, !tbaa !25
  br label %126

97:                                               ; preds = %84
  %98 = load ptr, ptr %12, align 8, !tbaa !18
  %99 = getelementptr inbounds nuw %struct.ByUnfoldKey, ptr %98, i32 0, i32 2
  %100 = load i16, ptr %99, align 2, !tbaa !20
  %101 = sext i16 %100 to i32
  %102 = icmp eq i32 %101, 2
  br i1 %102, label %103, label %110

103:                                              ; preds = %97
  %104 = load ptr, ptr %12, align 8, !tbaa !18
  %105 = getelementptr inbounds nuw %struct.ByUnfoldKey, ptr %104, i32 0, i32 1
  %106 = load i16, ptr %105, align 4, !tbaa !23
  %107 = sext i16 %106 to i32
  %108 = sext i32 %107 to i64
  %109 = getelementptr inbounds i32, ptr @OnigUnicodeFolds2, i64 %108
  store ptr %109, ptr %19, align 8, !tbaa !25
  br label %125

110:                                              ; preds = %97
  %111 = load ptr, ptr %12, align 8, !tbaa !18
  %112 = getelementptr inbounds nuw %struct.ByUnfoldKey, ptr %111, i32 0, i32 2
  %113 = load i16, ptr %112, align 2, !tbaa !20
  %114 = sext i16 %113 to i32
  %115 = icmp eq i32 %114, 3
  br i1 %115, label %116, label %123

116:                                              ; preds = %110
  %117 = load ptr, ptr %12, align 8, !tbaa !18
  %118 = getelementptr inbounds nuw %struct.ByUnfoldKey, ptr %117, i32 0, i32 1
  %119 = load i16, ptr %118, align 4, !tbaa !23
  %120 = sext i16 %119 to i32
  %121 = sext i32 %120 to i64
  %122 = getelementptr inbounds i32, ptr @OnigUnicodeFolds3, i64 %121
  store ptr %122, ptr %19, align 8, !tbaa !25
  br label %124

123:                                              ; preds = %110
  store i32 -400, ptr %6, align 4
  store i32 1, ptr %18, align 4
  br label %160

124:                                              ; preds = %116
  br label %125

125:                                              ; preds = %124, %103
  br label %126

126:                                              ; preds = %125, %90
  br label %127

127:                                              ; preds = %126
  br label %128

128:                                              ; preds = %127
  store i32 0, ptr %16, align 4, !tbaa !9
  store i32 0, ptr %14, align 4, !tbaa !9
  br label %129

129:                                              ; preds = %155, %128
  %130 = load i32, ptr %14, align 4, !tbaa !9
  %131 = load ptr, ptr %12, align 8, !tbaa !18
  %132 = getelementptr inbounds nuw %struct.ByUnfoldKey, ptr %131, i32 0, i32 2
  %133 = load i16, ptr %132, align 2, !tbaa !20
  %134 = sext i16 %133 to i32
  %135 = icmp slt i32 %130, %134
  br i1 %135, label %136, label %158

136:                                              ; preds = %129
  call void @llvm.lifetime.start.p0(i64 4, ptr %20) #7
  %137 = load ptr, ptr %19, align 8, !tbaa !25
  %138 = load i32, ptr %14, align 4, !tbaa !9
  %139 = sext i32 %138 to i64
  %140 = getelementptr inbounds i32, ptr %137, i64 %139
  %141 = load i32, ptr %140, align 4, !tbaa !9
  store i32 %141, ptr %20, align 4, !tbaa !9
  %142 = load ptr, ptr %7, align 8, !tbaa !4
  %143 = getelementptr inbounds nuw %struct.OnigEncodingTypeST, ptr %142, i32 0, i32 7
  %144 = load ptr, ptr %143, align 8, !tbaa !24
  %145 = load i32, ptr %20, align 4, !tbaa !9
  %146 = load ptr, ptr %11, align 8, !tbaa !13
  %147 = call i32 %144(i32 noundef %145, ptr noundef %146)
  store i32 %147, ptr %15, align 4, !tbaa !9
  %148 = load i32, ptr %15, align 4, !tbaa !9
  %149 = load ptr, ptr %11, align 8, !tbaa !13
  %150 = sext i32 %148 to i64
  %151 = getelementptr inbounds i8, ptr %149, i64 %150
  store ptr %151, ptr %11, align 8, !tbaa !13
  %152 = load i32, ptr %15, align 4, !tbaa !9
  %153 = load i32, ptr %16, align 4, !tbaa !9
  %154 = add nsw i32 %153, %152
  store i32 %154, ptr %16, align 4, !tbaa !9
  call void @llvm.lifetime.end.p0(i64 4, ptr %20) #7
  br label %155

155:                                              ; preds = %136
  %156 = load i32, ptr %14, align 4, !tbaa !9
  %157 = add nsw i32 %156, 1
  store i32 %157, ptr %14, align 4, !tbaa !9
  br label %129, !llvm.loop !27

158:                                              ; preds = %129
  %159 = load i32, ptr %16, align 4, !tbaa !9
  store i32 %159, ptr %6, align 4
  store i32 1, ptr %18, align 4
  br label %160

160:                                              ; preds = %158, %123
  call void @llvm.lifetime.end.p0(i64 8, ptr %19) #7
  br label %179

161:                                              ; preds = %82
  br label %162

162:                                              ; preds = %161, %45
  br label %163

163:                                              ; preds = %162, %42
  store i32 0, ptr %14, align 4, !tbaa !9
  br label %164

164:                                              ; preds = %174, %163
  %165 = load i32, ptr %14, align 4, !tbaa !9
  %166 = load i32, ptr %15, align 4, !tbaa !9
  %167 = icmp slt i32 %165, %166
  br i1 %167, label %168, label %177

168:                                              ; preds = %164
  %169 = load ptr, ptr %17, align 8, !tbaa !13
  %170 = getelementptr inbounds nuw i8, ptr %169, i32 1
  store ptr %170, ptr %17, align 8, !tbaa !13
  %171 = load i8, ptr %169, align 1, !tbaa !29
  %172 = load ptr, ptr %11, align 8, !tbaa !13
  %173 = getelementptr inbounds nuw i8, ptr %172, i32 1
  store ptr %173, ptr %11, align 8, !tbaa !13
  store i8 %171, ptr %172, align 1, !tbaa !29
  br label %174

174:                                              ; preds = %168
  %175 = load i32, ptr %14, align 4, !tbaa !9
  %176 = add nsw i32 %175, 1
  store i32 %176, ptr %14, align 4, !tbaa !9
  br label %164, !llvm.loop !30

177:                                              ; preds = %164
  %178 = load i32, ptr %15, align 4, !tbaa !9
  store i32 %178, ptr %6, align 4
  store i32 1, ptr %18, align 4
  br label %179

179:                                              ; preds = %177, %160, %69
  call void @llvm.lifetime.end.p0(i64 8, ptr %17) #7
  call void @llvm.lifetime.end.p0(i64 4, ptr %16) #7
  call void @llvm.lifetime.end.p0(i64 4, ptr %15) #7
  call void @llvm.lifetime.end.p0(i64 4, ptr %14) #7
  call void @llvm.lifetime.end.p0(i64 4, ptr %13) #7
  call void @llvm.lifetime.end.p0(i64 8, ptr %12) #7
  %180 = load i32, ptr %6, align 4
  ret i32 %180
}