; Function Attrs: nounwind uwtable
define dso_local i32 @onigenc_unicode_mbc_case_fold(ptr noundef readonly captures(none) %0, i32 noundef %1, ptr noundef captures(none) %2, ptr noundef %3, ptr noundef %4) local_unnamed_addr #0 {
  %6 = load ptr, ptr %2, align 8, !tbaa !4
  %7 = getelementptr inbounds nuw i8, ptr %0, i64 32
  %8 = load ptr, ptr %7, align 8, !tbaa !9
  %9 = tail call i32 %8(ptr noundef %6, ptr noundef %3) #10
  %10 = load ptr, ptr %0, align 8, !tbaa !12
  %11 = tail call i32 %10(ptr noundef %6) #10
  %12 = load ptr, ptr %2, align 8, !tbaa !4
  %13 = sext i32 %11 to i64
  %14 = getelementptr inbounds i8, ptr %12, i64 %13
  store ptr %14, ptr %2, align 8, !tbaa !4
  %15 = and i32 %1, 1
  %16 = icmp eq i32 %15, 0
  %17 = icmp ult i32 %9, 128
  %or.cond = select i1 %16, i1 true, i1 %17
  br i1 %or.cond, label %18, label %45

18:                                               ; preds = %5
  %19 = tail call ptr @onigenc_unicode_unfold_key(i32 noundef %9) #10
  %.not = icmp eq ptr %19, null
  br i1 %.not, label %45, label %20

20:                                               ; preds = %18
  %21 = getelementptr inbounds nuw i8, ptr %19, i64 6
  %22 = load i16, ptr %21, align 2, !tbaa !13
  switch i16 %22, label %.loopexit [
    i16 1, label %23
    i16 2, label %.lr.ph
    i16 3, label %28
  ]

23:                                               ; preds = %20
  %.phi.trans.insert = getelementptr inbounds nuw i8, ptr %19, i64 4
  %.pre = load i16, ptr %.phi.trans.insert, align 4, !tbaa !16
  %.phi.trans.insert64 = sext i16 %.pre to i64
  %.phi.trans.insert65 = getelementptr inbounds i32, ptr @OnigUnicodeFolds1, i64 %.phi.trans.insert64
  %.pre66 = load i32, ptr %.phi.trans.insert65, align 4, !tbaa !17
  %24 = icmp ult i32 %.pre66, 128
  %or.cond68 = select i1 %16, i1 true, i1 %24
  br i1 %or.cond68, label %._crit_edge, label %45

._crit_edge:                                      ; preds = %23
  %25 = getelementptr inbounds nuw i8, ptr %0, i64 48
  %26 = load ptr, ptr %25, align 8, !tbaa !18
  %27 = tail call i32 %26(i32 noundef %.pre66, ptr noundef %4) #10
  br label %.loopexit

28:                                               ; preds = %20
  br label %.lr.ph

.lr.ph:                                           ; preds = %20, %28
  %OnigUnicodeFolds3.sink = phi ptr [ @OnigUnicodeFolds3, %28 ], [ @OnigUnicodeFolds2, %20 ]
  %29 = getelementptr inbounds nuw i8, ptr %19, i64 4
  %30 = load i16, ptr %29, align 4, !tbaa !16
  %31 = sext i16 %30 to i64
  %32 = getelementptr inbounds i32, ptr %OnigUnicodeFolds3.sink, i64 %31
  %33 = getelementptr inbounds nuw i8, ptr %0, i64 48
  br label %34

34:                                               ; preds = %.lr.ph, %34
  %indvars.iv = phi i64 [ 0, %.lr.ph ], [ %indvars.iv.next, %34 ]
  %.04657 = phi i32 [ 0, %.lr.ph ], [ %41, %34 ]
  %.04955 = phi ptr [ %4, %.lr.ph ], [ %40, %34 ]
  %35 = getelementptr inbounds nuw i32, ptr %32, i64 %indvars.iv
  %36 = load i32, ptr %35, align 4, !tbaa !17
  %37 = load ptr, ptr %33, align 8, !tbaa !18
  %38 = tail call i32 %37(i32 noundef %36, ptr noundef %.04955) #10
  %39 = sext i32 %38 to i64
  %40 = getelementptr inbounds i8, ptr %.04955, i64 %39
  %41 = add nsw i32 %38, %.04657
  %indvars.iv.next = add nuw nsw i64 %indvars.iv, 1
  %42 = load i16, ptr %21, align 2, !tbaa !13
  %43 = sext i16 %42 to i64
  %44 = icmp slt i64 %indvars.iv.next, %43
  br i1 %44, label %34, label %.loopexit, !llvm.loop !19

45:                                               ; preds = %23, %18, %5
  %46 = icmp sgt i32 %11, 0
  br i1 %46, label %.lr.ph61, label %.loopexit

.lr.ph61:                                         ; preds = %45, %.lr.ph61
  %.04560 = phi ptr [ %47, %.lr.ph61 ], [ %6, %45 ]
  %.14859 = phi i32 [ %50, %.lr.ph61 ], [ 0, %45 ]
  %.15058 = phi ptr [ %49, %.lr.ph61 ], [ %4, %45 ]
  %47 = getelementptr inbounds nuw i8, ptr %.04560, i64 1
  %48 = load i8, ptr %.04560, align 1, !tbaa !21
  %49 = getelementptr inbounds nuw i8, ptr %.15058, i64 1
  store i8 %48, ptr %.15058, align 1, !tbaa !21
  %50 = add nuw nsw i32 %.14859, 1
  %exitcond.not = icmp eq i32 %50, %11
  br i1 %exitcond.not, label %.loopexit, label %.lr.ph61, !llvm.loop !22

.loopexit:                                        ; preds = %34, %.lr.ph61, %45, %20, %._crit_edge
  %.0 = phi i32 [ %27, %._crit_edge ], [ -400, %20 ], [ %11, %45 ], [ %11, %.lr.ph61 ], [ %41, %34 ]
  ret i32 %.0
}